; Function Attrs: mustprogress uwtable
define void @_ZN7rocksdb20PropertyBlockBuilderC2Ev(ptr noundef nonnull align 8 dereferenceable(56) %this) unnamed_addr #3 align 2 personality ptr @__gxx_personality_v0 {
entry:
  %call = tail call noalias noundef nonnull dereferenceable(176) ptr @_Znwm(i64 noundef 176) #19
  invoke void @_ZN7rocksdb12BlockBuilderC1EibbNS_22BlockBasedTableOptions18DataBlockIndexTypeEdmbb(ptr noundef nonnull align 8 dereferenceable(176) %call, i32 noundef 2147483647, i1 noundef zeroext true, i1 noundef zeroext false, i8 noundef signext 0, double noundef 7.500000e-01, i64 noundef 0, i1 noundef zeroext true, i1 noundef zeroext false)
          to label %invoke.cont unwind label %lpad

invoke.cont:                                      ; preds = %entry
  store ptr %call, ptr %this, align 8
  %call.i1.i.i.i2 = invoke noundef ptr @_ZN7rocksdb18BytewiseComparatorEv()
          to label %invoke.cont4 unwind label %lpad3

invoke.cont4:                                     ; preds = %invoke.cont
  %props_ = getelementptr inbounds i8, ptr %this, i64 8
  store ptr %call.i1.i.i.i2, ptr %props_, align 8
  %0 = getelementptr inbounds i8, ptr %this, i64 16
  store i32 0, ptr %0, align 8
  %_M_parent.i.i.i.i.i = getelementptr inbounds i8, ptr %this, i64 24
  store ptr null, ptr %_M_parent.i.i.i.i.i, align 8
  %_M_left.i.i.i.i.i = getelementptr inbounds i8, ptr %this, i64 32
  store ptr %0, ptr %_M_left.i.i.i.i.i, align 8
  %_M_right.i.i.i.i.i = getelementptr inbounds i8, ptr %this, i64 40
  store ptr %0, ptr %_M_right.i.i.i.i.i, align 8
  %_M_node_count.i.i.i.i.i = getelementptr inbounds i8, ptr %this, i64 48
  store i64 0, ptr %_M_node_count.i.i.i.i.i, align 8
  ret void

lpad:                                             ; preds = %entry
  %1 = landingpad { ptr, i32 }
          cleanup
  tail call void @_ZdlPv(ptr noundef nonnull %call) #18
  br label %eh.resume

lpad3:                                            ; preds = %invoke.cont
  %2 = landingpad { ptr, i32 }
          cleanup
  tail call void @_ZNSt10unique_ptrIN7rocksdb12BlockBuilderESt14default_deleteIS1_EED2Ev(ptr noundef nonnull align 8 dereferenceable(8) %this) #20
  br label %eh.resume

eh.resume:                                        ; preds = %lpad3, %lpad
  %.pn = phi { ptr, i32 } [ %2, %lpad3 ], [ %1, %lpad ]
  resume { ptr, i32 } %.pn
}